ccopy_reg
_reconstructor
p0
(cgoogle.oauth2.credentials
Credentials
p1
c__builtin__
object
p2
Ntp3
Rp4
(dp5
S'_quota_project_id'
p6
NsS'_token_uri'
p7
Vhttps://oauth2.googleapis.com/token
p8
sS'_client_secret'
p9
V-pmAI_lqp3IO48Pr-IjLNZm9
p10
sS'_id_token'
p11
NsS'token'
p12
Vya29.a0AfH6SMDnvn7_QPqlFxhpA9E2v352SPPxfswJE0diosEOIT6AygyDdg1LrOuL-Rfgf5XRp-j_UucUwR8hdI7iaq1rp97WJlIfSwxWz93yPAmk2EK03av6DMEBwbV75sZVoIgTIC7Bn_kp7c3hm_z7JKRoy7z1jLl7tsAEz3tPPfw
p13
sS'_refresh_token'
p14
V1//0fA0dg8NMfIejCgYIARAAGA8SNwF-L9Iroj7fxlg6uSjbNk1gNQwiKk2oLRoCp2Vasg5hHYS_-9ggYOtDXmxtYiYCLg_7SgTCFlk
p15
sS'_scopes'
p16
(lp17
S'https://www.googleapis.com/auth/calendar'
p18
aS'https://www.googleapis.com/auth/youtube'
p19
asS'_client_id'
p20
V915547673445-i848i60frkvd90tvc6vmg912ldl3qpot.apps.googleusercontent.com
p21
sS'expiry'
p22
cdatetime
datetime
p23
(S'\x07\xe4\x0b\x17\x01\x17"\x0b\x8a\xe6'
p24
tp25
Rp26
sb.